target datalayout = "e-m:e-p270:32:32-p271:32:32-p272:64:64-i64:64-i128:128-f80:128-n8:16:32:64-S128"
target triple = "x86_64-pc-linux-gnu"

%struct.test_fixture = type { ptr, i32, ptr, ptr }
%struct.ossl_cmp_pkiheader_st = type { ptr, ptr, ptr, ptr, ptr, ptr, ptr, ptr, ptr, ptr, ptr, ptr }
%struct.GENERAL_NAME_st = type { i32, %union.anon }
%union.anon = type { ptr }

@.str.3 = private unnamed_addr constant [24 x i8] c"test_HDR_set1_recipient\00", align 1
@.str.13 = private unnamed_addr constant [31 x i8] c"../openssl/test/cmp_hdr_test.c\00", align 1
@.str.18 = private unnamed_addr constant [2 x i8] c"1\00", align 1
@.str.22 = private unnamed_addr constant [3 x i8] c"CN\00", align 1
@.str.27 = private unnamed_addr constant [2 x i8] c"0\00", align 1
@.str.28 = private unnamed_addr constant [9 x i8] c"x509name\00", align 1
@.str.31 = private unnamed_addr constant [12 x i8] c"GEN_DIRNAME\00", align 1
@.str.33 = private unnamed_addr constant [24 x i8] c"A common recipient name\00", align 1
@.str.34 = private unnamed_addr constant [52 x i8] c"ossl_cmp_hdr_set1_recipient(fixture->hdr, x509name)\00", align 1
@.str.35 = private unnamed_addr constant [30 x i8] c"fixture->hdr->recipient->type\00", align 1
@.str.36 = private unnamed_addr constant [66 x i8] c"X509_NAME_cmp(fixture->hdr->recipient->d.directoryName, x509name)\00", align 1

; Function Attrs: nounwind uwtable
define internal void @tear_down(ptr noundef %0) #0 {
  %2 = alloca ptr, align 8
  store ptr %0, ptr %2, align 8, !tbaa !4
  %3 = load ptr, ptr %2, align 8, !tbaa !4
  %4 = getelementptr inbounds nuw %struct.test_fixture, ptr %3, i32 0, i32 3
  %5 = load ptr, ptr %4, align 8, !tbaa !21
  call void @OSSL_CMP_PKIHEADER_free(ptr noundef %5)
  %6 = load ptr, ptr %2, align 8, !tbaa !4
  %7 = getelementptr inbounds nuw %struct.test_fixture, ptr %6, i32 0, i32 2
  %8 = load ptr, ptr %7, align 8, !tbaa !16
  call void @OSSL_CMP_CTX_free(ptr noundef %8)
  %9 = load ptr, ptr %2, align 8, !tbaa !4
  call void @CRYPTO_free(ptr noundef %9, ptr noundef @.str.13, i32 noundef 28)
  ret void
}

; Function Attrs: nounwind uwtable
define internal i32 @execute_HDR_set1_recipient_test(ptr noundef %0) #0 {
  %2 = alloca ptr, align 8
  %3 = alloca i32, align 4
  %4 = alloca ptr, align 8
  store ptr %0, ptr %2, align 8, !tbaa !4
  call void @llvm.lifetime.start.p0(i64 4, ptr %3) #7
  store i32 0, ptr %3, align 4, !tbaa !9
  call void @llvm.lifetime.start.p0(i64 8, ptr %4) #7
  %5 = call ptr @X509_NAME_new()
  store ptr %5, ptr %4, align 8, !tbaa !17
  %6 = load ptr, ptr %4, align 8, !tbaa !17
  %7 = call i32 @test_ptr(ptr noundef @.str.13, i32 noundef 147, ptr noundef @.str.28, ptr noundef %6)
  %8 = icmp ne i32 %7, 0
  br i1 %8, label %10, label %9

9:                                                ; preds = %1
  br label %46

10:                                               ; preds = %1
  %11 = load ptr, ptr %4, align 8, !tbaa !17
  %12 = call i32 @X509_NAME_add_entry_by_txt(ptr noundef %11, ptr noundef @.str.22, i32 noundef 4097, ptr noundef @.str.33, i32 noundef -1, i32 noundef -1, i32 noundef 0)
  %13 = load ptr, ptr %2, align 8, !tbaa !4
  %14 = getelementptr inbounds nuw %struct.test_fixture, ptr %13, i32 0, i32 3
  %15 = load ptr, ptr %14, align 8, !tbaa !21
  %16 = load ptr, ptr %4, align 8, !tbaa !17
  %17 = call i32 @ossl_cmp_hdr_set1_recipient(ptr noundef %15, ptr noundef %16)
  %18 = call i32 @test_int_eq(ptr noundef @.str.13, i32 noundef 151, ptr noundef @.str.34, ptr noundef @.str.18, i32 noundef %17, i32 noundef 1)
  %19 = icmp ne i32 %18, 0
  br i1 %19, label %21, label %20

20:                                               ; preds = %10
  br label %46

21:                                               ; preds = %10
  %22 = load ptr, ptr %2, align 8, !tbaa !4
  %23 = getelementptr inbounds nuw %struct.test_fixture, ptr %22, i32 0, i32 3
  %24 = load ptr, ptr %23, align 8, !tbaa !21
  %25 = getelementptr inbounds nuw %struct.ossl_cmp_pkiheader_st, ptr %24, i32 0, i32 2
  %26 = load ptr, ptr %25, align 8, !tbaa !47
  %27 = getelementptr inbounds nuw %struct.GENERAL_NAME_st, ptr %26, i32 0, i32 0
  %28 = load i32, ptr %27, align 8, !tbaa !44
  %29 = call i32 @test_int_eq(ptr noundef @.str.13, i32 noundef 154, ptr noundef @.str.35, ptr noundef @.str.31, i32 noundef %28, i32 noundef 4)
  %30 = icmp ne i32 %29, 0
  br i1 %30, label %32, label %31

31:                                               ; preds = %21
  br label %46

32:                                               ; preds = %21
  %33 = load ptr, ptr %2, align 8, !tbaa !4
  %34 = getelementptr inbounds nuw %struct.test_fixture, ptr %33, i32 0, i32 3
  %35 = load ptr, ptr %34, align 8, !tbaa !21
  %36 = getelementptr inbounds nuw %struct.ossl_cmp_pkiheader_st, ptr %35, i32 0, i32 2
  %37 = load ptr, ptr %36, align 8, !tbaa !47
  %38 = getelementptr inbounds nuw %struct.GENERAL_NAME_st, ptr %37, i32 0, i32 1
  %39 = load ptr, ptr %38, align 8, !tbaa !46
  %40 = load ptr, ptr %4, align 8, !tbaa !17
  %41 = call i32 @X509_NAME_cmp(ptr noundef %39, ptr noundef %40)
  %42 = call i32 @test_int_eq(ptr noundef @.str.13, i32 noundef 158, ptr noundef @.str.36, ptr noundef @.str.27, i32 noundef %41, i32 noundef 0)
  %43 = icmp ne i32 %42, 0
  br i1 %43, label %45, label %44

44:                                               ; preds = %32
  br label %46

45:                                               ; preds = %32
  store i32 1, ptr %3, align 4, !tbaa !9
  br label %46

46:                                               ; preds = %45, %44, %31, %20, %9
  %47 = load ptr, ptr %4, align 8, !tbaa !17
  call void @X509_NAME_free(ptr noundef %47)
  %48 = load i32, ptr %3, align 4, !tbaa !9
  call void @llvm.lifetime.end.p0(i64 8, ptr %4) #7
  call void @llvm.lifetime.end.p0(i64 4, ptr %3) #7
  ret i32 %48
}

; Function Attrs: nounwind uwtable
define internal i32 @test_HDR_set1_recipient() #0 {
  %1 = alloca i32, align 4
  %2 = alloca ptr, align 8
  %3 = alloca i32, align 4
  %4 = alloca i32, align 4
  call void @llvm.lifetime.start.p0(i64 8, ptr %2) #7
  %5 = call ptr @set_up(ptr noundef @.str.3)
  store ptr %5, ptr %2, align 8, !tbaa !4
  call void @llvm.lifetime.start.p0(i64 4, ptr %3) #7
  store i32 0, ptr %3, align 4, !tbaa !9
  %6 = load ptr, ptr %2, align 8, !tbaa !4
  %7 = icmp eq ptr %6, null
  br i1 %7, label %8, label %9

8:                                                ; preds = %0
  store i32 0, ptr %1, align 4
  store i32 1, ptr %4, align 4
  br label %20

9:                                                ; preds = %0
  %10 = load ptr, ptr %2, align 8, !tbaa !4
  %11 = getelementptr inbounds nuw %struct.test_fixture, ptr %10, i32 0, i32 1
  store i32 1, ptr %11, align 8, !tbaa !11
  %12 = load ptr, ptr %2, align 8, !tbaa !4
  %13 = icmp ne ptr %12, null
  br i1 %13, label %14, label %18

14:                                               ; preds = %9
  %15 = load ptr, ptr %2, align 8, !tbaa !4
  %16 = call i32 @execute_HDR_set1_recipient_test(ptr noundef %15)
  store i32 %16, ptr %3, align 4, !tbaa !9
  %17 = load ptr, ptr %2, align 8, !tbaa !4
  call void @tear_down(ptr noundef %17)
  br label %18

18:                                               ; preds = %14, %9
  %19 = load i32, ptr %3, align 4, !tbaa !9
  store i32 %19, ptr %1, align 4
  store i32 1, ptr %4, align 4
  br label %20

20:                                               ; preds = %18, %8
  call void @llvm.lifetime.end.p0(i64 4, ptr %3) #7
  call void @llvm.lifetime.end.p0(i64 8, ptr %2) #7
  %21 = load i32, ptr %1, align 4
  ret i32 %21
}