; Function Attrs: nounwind uwtable
define internal range(i32 0, 2) i32 @test_HDR_set1_recipient() #1 {
  %1 = tail call fastcc ptr @set_up(ptr noundef nonnull @.str.3)
  %2 = icmp eq ptr %1, null
  br i1 %2, label %31, label %3

3:                                                ; preds = %0
  %4 = getelementptr inbounds nuw i8, ptr %1, i64 8
  store i32 1, ptr %4, align 8, !tbaa !4
  %5 = tail call ptr @X509_NAME_new() #8
  %6 = tail call i32 @test_ptr(ptr noundef nonnull @.str.13, i32 noundef 147, ptr noundef nonnull @.str.28, ptr noundef %5) #8
  %.not.i = icmp eq i32 %6, 0
  br i1 %.not.i, label %execute_HDR_set1_recipient_test.exit, label %7

7:                                                ; preds = %3
  %8 = tail call i32 @X509_NAME_add_entry_by_txt(ptr noundef %5, ptr noundef nonnull @.str.22, i32 noundef 4097, ptr noundef nonnull @.str.33, i32 noundef -1, i32 noundef -1, i32 noundef 0) #8
  %9 = getelementptr inbounds nuw i8, ptr %1, i64 24
  %10 = load ptr, ptr %9, align 8, !tbaa !13
  %11 = tail call i32 @ossl_cmp_hdr_set1_recipient(ptr noundef %10, ptr noundef %5) #8
  %12 = tail call i32 @test_int_eq(ptr noundef nonnull @.str.13, i32 noundef 151, ptr noundef nonnull @.str.34, ptr noundef nonnull @.str.18, i32 noundef %11, i32 noundef 1) #8
  %.not8.i = icmp eq i32 %12, 0
  br i1 %.not8.i, label %execute_HDR_set1_recipient_test.exit, label %13

13:                                               ; preds = %7
  %14 = load ptr, ptr %9, align 8, !tbaa !13
  %15 = getelementptr inbounds nuw i8, ptr %14, i64 16
  %16 = load ptr, ptr %15, align 8, !tbaa !40
  %17 = load i32, ptr %16, align 8, !tbaa !37
  %18 = tail call i32 @test_int_eq(ptr noundef nonnull @.str.13, i32 noundef 154, ptr noundef nonnull @.str.35, ptr noundef nonnull @.str.31, i32 noundef %17, i32 noundef 4) #8
  %.not9.i = icmp eq i32 %18, 0
  br i1 %.not9.i, label %execute_HDR_set1_recipient_test.exit, label %19

19:                                               ; preds = %13
  %20 = load ptr, ptr %9, align 8, !tbaa !13
  %21 = getelementptr inbounds nuw i8, ptr %20, i64 16
  %22 = load ptr, ptr %21, align 8, !tbaa !40
  %23 = getelementptr inbounds nuw i8, ptr %22, i64 8
  %24 = load ptr, ptr %23, align 8, !tbaa !39
  %25 = tail call i32 @X509_NAME_cmp(ptr noundef %24, ptr noundef %5) #8
  %26 = tail call i32 @test_int_eq(ptr noundef nonnull @.str.13, i32 noundef 158, ptr noundef nonnull @.str.36, ptr noundef nonnull @.str.27, i32 noundef %25, i32 noundef 0) #8
  %.not10.i = icmp ne i32 %26, 0
  %spec.select.i = zext i1 %.not10.i to i32
  br label %execute_HDR_set1_recipient_test.exit

execute_HDR_set1_recipient_test.exit:             ; preds = %3, %7, %13, %19
  %.0.i = phi i32 [ 0, %13 ], [ 0, %7 ], [ 0, %3 ], [ %spec.select.i, %19 ]
  tail call void @X509_NAME_free(ptr noundef %5) #8
  %27 = getelementptr inbounds nuw i8, ptr %1, i64 24
  %28 = load ptr, ptr %27, align 8, !tbaa !13
  tail call void @OSSL_CMP_PKIHEADER_free(ptr noundef %28) #8
  %29 = getelementptr inbounds nuw i8, ptr %1, i64 16
  %30 = load ptr, ptr %29, align 8, !tbaa !14
  tail call void @OSSL_CMP_CTX_free(ptr noundef %30) #8
  tail call void @CRYPTO_free(ptr noundef nonnull %1, ptr noundef nonnull @.str.13, i32 noundef 28) #8
  br label %31

31:                                               ; preds = %0, %execute_HDR_set1_recipient_test.exit
  %.06 = phi i32 [ %.0.i, %execute_HDR_set1_recipient_test.exit ], [ 0, %0 ]
  ret i32 %.06
}